target datalayout = "e-m:e-p270:32:32-p271:32:32-p272:64:64-i64:64-i128:128-f80:128-n8:16:32:64-S128"
target triple = "x86_64-pc-linux-gnu"

%struct.AudioDeclickContext = type { ptr, double, double, double, double, double, i32, i32, i32, i32, i32, i32, i32, i32, ptr, ptr, ptr, ptr, ptr, ptr, i64, i32, i64, i64, i32, i32, ptr, ptr, ptr, ptr }
%struct.DeclickChannel = type { ptr, ptr, ptr, ptr, ptr, ptr, ptr, i32, ptr, i32, ptr, i32, ptr, ptr, ptr, i32 }

; Function Attrs: nounwind uwtable
define internal i32 @detect_clips(ptr noundef %0, ptr noundef %1, double noundef %2, ptr noundef %3, ptr noundef %4, ptr noundef %5, ptr noundef %6, ptr noundef %7, ptr noundef %8) #1 {
  %10 = alloca i32, align 4
  %11 = alloca ptr, align 8
  %12 = alloca ptr, align 8
  %13 = alloca double, align 8
  %14 = alloca ptr, align 8
  %15 = alloca ptr, align 8
  %16 = alloca ptr, align 8
  %17 = alloca ptr, align 8
  %18 = alloca ptr, align 8
  %19 = alloca ptr, align 8
  %20 = alloca double, align 8
  %21 = alloca double, align 8
  %22 = alloca ptr, align 8
  %23 = alloca i32, align 4
  %24 = alloca i32, align 4
  %25 = alloca i32, align 4
  %26 = alloca i32, align 4
  store ptr %0, ptr %11, align 8, !tbaa !22
  store ptr %1, ptr %12, align 8, !tbaa !42
  store double %2, ptr %13, align 8, !tbaa !72
  store ptr %3, ptr %14, align 8, !tbaa !66
  store ptr %4, ptr %15, align 8, !tbaa !66
  store ptr %5, ptr %16, align 8, !tbaa !65
  store ptr %6, ptr %17, align 8, !tbaa !115
  store ptr %7, ptr %18, align 8, !tbaa !66
  store ptr %8, ptr %19, align 8, !tbaa !66
  call void @llvm.lifetime.start.p0(i64 8, ptr %20) #11
  %27 = load ptr, ptr %11, align 8, !tbaa !22
  %28 = getelementptr inbounds nuw %struct.AudioDeclickContext, ptr %27, i32 0, i32 3
  %29 = load double, ptr %28, align 8, !tbaa !116
  store double %29, ptr %20, align 8, !tbaa !72
  call void @llvm.lifetime.start.p0(i64 8, ptr %21) #11
  store double 0.000000e+00, ptr %21, align 8, !tbaa !72
  call void @llvm.lifetime.start.p0(i64 8, ptr %22) #11
  call void @llvm.lifetime.start.p0(i64 4, ptr %23) #11
  call void @llvm.lifetime.start.p0(i64 4, ptr %24) #11
  store i32 0, ptr %24, align 4, !tbaa !40
  %30 = load ptr, ptr %12, align 8, !tbaa !42
  %31 = getelementptr inbounds nuw %struct.DeclickChannel, ptr %30, i32 0, i32 14
  %32 = load ptr, ptr %12, align 8, !tbaa !42
  %33 = getelementptr inbounds nuw %struct.DeclickChannel, ptr %32, i32 0, i32 15
  %34 = load ptr, ptr %11, align 8, !tbaa !22
  %35 = getelementptr inbounds nuw %struct.AudioDeclickContext, ptr %34, i32 0, i32 7
  %36 = load i32, ptr %35, align 4, !tbaa !117
  %37 = sext i32 %36 to i64
  %38 = mul i64 %37, 4
  call void @av_fast_malloc(ptr noundef %31, ptr noundef %33, i64 noundef %38)
  %39 = load ptr, ptr %12, align 8, !tbaa !42
  %40 = getelementptr inbounds nuw %struct.DeclickChannel, ptr %39, i32 0, i32 14
  %41 = load ptr, ptr %40, align 8, !tbaa !118
  %42 = icmp ne ptr %41, null
  br i1 %42, label %44, label %43

43:                                               ; preds = %9
  store i32 -12, ptr %10, align 4
  store i32 1, ptr %25, align 4
  br label %237

44:                                               ; preds = %9
  %45 = load ptr, ptr %12, align 8, !tbaa !42
  %46 = getelementptr inbounds nuw %struct.DeclickChannel, ptr %45, i32 0, i32 14
  %47 = load ptr, ptr %46, align 8, !tbaa !118
  store ptr %47, ptr %22, align 8, !tbaa !115
  %48 = load ptr, ptr %22, align 8, !tbaa !115
  %49 = load ptr, ptr %11, align 8, !tbaa !22
  %50 = getelementptr inbounds nuw %struct.AudioDeclickContext, ptr %49, i32 0, i32 7
  %51 = load i32, ptr %50, align 4, !tbaa !117
  %52 = sext i32 %51 to i64
  %53 = mul i64 4, %52
  call void @llvm.memset.p0.i64(ptr align 4 %48, i8 0, i64 %53, i1 false)
  store i32 0, ptr %23, align 4, !tbaa !40
  br label %54

54:                                               ; preds = %94, %44
  %55 = load i32, ptr %23, align 4, !tbaa !40
  %56 = load ptr, ptr %11, align 8, !tbaa !22
  %57 = getelementptr inbounds nuw %struct.AudioDeclickContext, ptr %56, i32 0, i32 11
  %58 = load i32, ptr %57, align 4, !tbaa !55
  %59 = icmp slt i32 %55, %58
  br i1 %59, label %60, label %97

60:                                               ; preds = %54
  call void @llvm.lifetime.start.p0(i64 4, ptr %26) #11
  %61 = load ptr, ptr %18, align 8, !tbaa !66
  %62 = load i32, ptr %23, align 4, !tbaa !40
  %63 = sext i32 %62 to i64
  %64 = getelementptr inbounds double, ptr %61, i64 %63
  %65 = load double, ptr %64, align 8, !tbaa !72
  %66 = call nsz double @llvm.fabs.f64(double %65)
  %67 = call nsz double @llvm.minnum.f64(double %66, double 1.000000e+00)
  %68 = load ptr, ptr %11, align 8, !tbaa !22
  %69 = getelementptr inbounds nuw %struct.AudioDeclickContext, ptr %68, i32 0, i32 7
  %70 = load i32, ptr %69, align 4, !tbaa !117
  %71 = sub nsw i32 %70, 1
  %72 = sitofp i32 %71 to double
  %73 = fmul nsz double %67, %72
  %74 = fptoui double %73 to i32
  store i32 %74, ptr %26, align 4, !tbaa !40
  %75 = load ptr, ptr %22, align 8, !tbaa !115
  %76 = load i32, ptr %26, align 4, !tbaa !40
  %77 = zext i32 %76 to i64
  %78 = getelementptr inbounds nuw i32, ptr %75, i64 %77
  %79 = load i32, ptr %78, align 4, !tbaa !40
  %80 = add i32 %79, 1
  store i32 %80, ptr %78, align 4, !tbaa !40
  %81 = load ptr, ptr %18, align 8, !tbaa !66
  %82 = load i32, ptr %23, align 4, !tbaa !40
  %83 = sext i32 %82 to i64
  %84 = getelementptr inbounds double, ptr %81, i64 %83
  %85 = load double, ptr %84, align 8, !tbaa !72
  %86 = load ptr, ptr %19, align 8, !tbaa !66
  %87 = load i32, ptr %23, align 4, !tbaa !40
  %88 = sext i32 %87 to i64
  %89 = getelementptr inbounds double, ptr %86, i64 %88
  store double %85, ptr %89, align 8, !tbaa !72
  %90 = load ptr, ptr %16, align 8, !tbaa !65
  %91 = load i32, ptr %23, align 4, !tbaa !40
  %92 = sext i32 %91 to i64
  %93 = getelementptr inbounds i8, ptr %90, i64 %92
  store i8 0, ptr %93, align 1, !tbaa !119
  call void @llvm.lifetime.end.p0(i64 4, ptr %26) #11
  br label %94

94:                                               ; preds = %60
  %95 = load i32, ptr %23, align 4, !tbaa !40
  %96 = add nsw i32 %95, 1
  store i32 %96, ptr %23, align 4, !tbaa !40
  br label %54, !llvm.loop !120

97:                                               ; preds = %54
  %98 = load ptr, ptr %11, align 8, !tbaa !22
  %99 = getelementptr inbounds nuw %struct.AudioDeclickContext, ptr %98, i32 0, i32 7
  %100 = load i32, ptr %99, align 4, !tbaa !117
  %101 = sub nsw i32 %100, 1
  store i32 %101, ptr %23, align 4, !tbaa !40
  br label %102

102:                                              ; preds = %150, %97
  %103 = load i32, ptr %23, align 4, !tbaa !40
  %104 = icmp sgt i32 %103, 1
  br i1 %104, label %105, label %153

105:                                              ; preds = %102
  %106 = load ptr, ptr %22, align 8, !tbaa !115
  %107 = load i32, ptr %23, align 4, !tbaa !40
  %108 = sext i32 %107 to i64
  %109 = getelementptr inbounds i32, ptr %106, i64 %108
  %110 = load i32, ptr %109, align 4, !tbaa !40
  %111 = icmp ne i32 %110, 0
  br i1 %111, label %112, label %149

112:                                              ; preds = %105
  %113 = load ptr, ptr %22, align 8, !tbaa !115
  %114 = load i32, ptr %23, align 4, !tbaa !40
  %115 = sext i32 %114 to i64
  %116 = getelementptr inbounds i32, ptr %113, i64 %115
  %117 = load i32, ptr %116, align 4, !tbaa !40
  %118 = uitofp i32 %117 to double
  %119 = load ptr, ptr %22, align 8, !tbaa !115
  %120 = load i32, ptr %23, align 4, !tbaa !40
  %121 = sub nsw i32 %120, 1
  %122 = sext i32 %121 to i64
  %123 = getelementptr inbounds i32, ptr %119, i64 %122
  %124 = load i32, ptr %123, align 4, !tbaa !40
  %125 = icmp ugt i32 %124, 1
  br i1 %125, label %126, label %133

126:                                              ; preds = %112
  %127 = load ptr, ptr %22, align 8, !tbaa !115
  %128 = load i32, ptr %23, align 4, !tbaa !40
  %129 = sub nsw i32 %128, 1
  %130 = sext i32 %129 to i64
  %131 = getelementptr inbounds i32, ptr %127, i64 %130
  %132 = load i32, ptr %131, align 4, !tbaa !40
  br label %134

133:                                              ; preds = %112
  br label %134

134:                                              ; preds = %133, %126
  %135 = phi i32 [ %132, %126 ], [ 1, %133 ]
  %136 = uitofp i32 %135 to double
  %137 = fdiv nsz double %118, %136
  %138 = load double, ptr %20, align 8, !tbaa !72
  %139 = fcmp nsz ogt double %137, %138
  br i1 %139, label %140, label %148

140:                                              ; preds = %134
  %141 = load i32, ptr %23, align 4, !tbaa !40
  %142 = sitofp i32 %141 to double
  %143 = load ptr, ptr %11, align 8, !tbaa !22
  %144 = getelementptr inbounds nuw %struct.AudioDeclickContext, ptr %143, i32 0, i32 7
  %145 = load i32, ptr %144, align 4, !tbaa !117
  %146 = sitofp i32 %145 to double
  %147 = fdiv nsz double %142, %146
  store double %147, ptr %21, align 8, !tbaa !72
  br label %148

148:                                              ; preds = %140, %134
  br label %153

149:                                              ; preds = %105
  br label %150

150:                                              ; preds = %149
  %151 = load i32, ptr %23, align 4, !tbaa !40
  %152 = add nsw i32 %151, -1
  store i32 %152, ptr %23, align 4, !tbaa !40
  br label %102, !llvm.loop !121

153:                                              ; preds = %148, %102
  %154 = load double, ptr %21, align 8, !tbaa !72
  %155 = fcmp nsz ogt double %154, 0.000000e+00
  br i1 %155, label %156, label %182

156:                                              ; preds = %153
  store i32 0, ptr %23, align 4, !tbaa !40
  br label %157

157:                                              ; preds = %178, %156
  %158 = load i32, ptr %23, align 4, !tbaa !40
  %159 = load ptr, ptr %11, align 8, !tbaa !22
  %160 = getelementptr inbounds nuw %struct.AudioDeclickContext, ptr %159, i32 0, i32 11
  %161 = load i32, ptr %160, align 4, !tbaa !55
  %162 = icmp slt i32 %158, %161
  br i1 %162, label %163, label %181

163:                                              ; preds = %157
  %164 = load ptr, ptr %18, align 8, !tbaa !66
  %165 = load i32, ptr %23, align 4, !tbaa !40
  %166 = sext i32 %165 to i64
  %167 = getelementptr inbounds double, ptr %164, i64 %166
  %168 = load double, ptr %167, align 8, !tbaa !72
  %169 = call nsz double @llvm.fabs.f64(double %168)
  %170 = load double, ptr %21, align 8, !tbaa !72
  %171 = fcmp nsz oge double %169, %170
  %172 = zext i1 %171 to i32
  %173 = trunc i32 %172 to i8
  %174 = load ptr, ptr %16, align 8, !tbaa !65
  %175 = load i32, ptr %23, align 4, !tbaa !40
  %176 = sext i32 %175 to i64
  %177 = getelementptr inbounds i8, ptr %174, i64 %176
  store i8 %173, ptr %177, align 1, !tbaa !119
  br label %178

178:                                              ; preds = %163
  %179 = load i32, ptr %23, align 4, !tbaa !40
  %180 = add nsw i32 %179, 1
  store i32 %180, ptr %23, align 4, !tbaa !40
  br label %157, !llvm.loop !122

181:                                              ; preds = %157
  br label %182

182:                                              ; preds = %181, %153
  %183 = load ptr, ptr %16, align 8, !tbaa !65
  %184 = load ptr, ptr %11, align 8, !tbaa !22
  %185 = getelementptr inbounds nuw %struct.AudioDeclickContext, ptr %184, i32 0, i32 9
  %186 = load i32, ptr %185, align 4, !tbaa !85
  %187 = sext i32 %186 to i64
  %188 = mul i64 %187, 1
  call void @llvm.memset.p0.i64(ptr align 1 %183, i8 0, i64 %188, i1 false)
  %189 = load ptr, ptr %16, align 8, !tbaa !65
  %190 = load ptr, ptr %11, align 8, !tbaa !22
  %191 = getelementptr inbounds nuw %struct.AudioDeclickContext, ptr %190, i32 0, i32 11
  %192 = load i32, ptr %191, align 4, !tbaa !55
  %193 = load ptr, ptr %11, align 8, !tbaa !22
  %194 = getelementptr inbounds nuw %struct.AudioDeclickContext, ptr %193, i32 0, i32 9
  %195 = load i32, ptr %194, align 4, !tbaa !85
  %196 = sub nsw i32 %192, %195
  %197 = sext i32 %196 to i64
  %198 = getelementptr inbounds i8, ptr %189, i64 %197
  %199 = load ptr, ptr %11, align 8, !tbaa !22
  %200 = getelementptr inbounds nuw %struct.AudioDeclickContext, ptr %199, i32 0, i32 9
  %201 = load i32, ptr %200, align 4, !tbaa !85
  %202 = sext i32 %201 to i64
  %203 = mul i64 %202, 1
  call void @llvm.memset.p0.i64(ptr align 1 %198, i8 0, i64 %203, i1 false)
  %204 = load ptr, ptr %11, align 8, !tbaa !22
  %205 = getelementptr inbounds nuw %struct.AudioDeclickContext, ptr %204, i32 0, i32 9
  %206 = load i32, ptr %205, align 4, !tbaa !85
  store i32 %206, ptr %23, align 4, !tbaa !40
  br label %207

207:                                              ; preds = %232, %182
  %208 = load i32, ptr %23, align 4, !tbaa !40
  %209 = load ptr, ptr %11, align 8, !tbaa !22
  %210 = getelementptr inbounds nuw %struct.AudioDeclickContext, ptr %209, i32 0, i32 11
  %211 = load i32, ptr %210, align 4, !tbaa !55
  %212 = load ptr, ptr %11, align 8, !tbaa !22
  %213 = getelementptr inbounds nuw %struct.AudioDeclickContext, ptr %212, i32 0, i32 9
  %214 = load i32, ptr %213, align 4, !tbaa !85
  %215 = sub nsw i32 %211, %214
  %216 = icmp slt i32 %208, %215
  br i1 %216, label %217, label %235

217:                                              ; preds = %207
  %218 = load ptr, ptr %16, align 8, !tbaa !65
  %219 = load i32, ptr %23, align 4, !tbaa !40
  %220 = sext i32 %219 to i64
  %221 = getelementptr inbounds i8, ptr %218, i64 %220
  %222 = load i8, ptr %221, align 1, !tbaa !119
  %223 = icmp ne i8 %222, 0
  br i1 %223, label %224, label %231

224:                                              ; preds = %217
  %225 = load i32, ptr %23, align 4, !tbaa !40
  %226 = load ptr, ptr %17, align 8, !tbaa !115
  %227 = load i32, ptr %24, align 4, !tbaa !40
  %228 = add nsw i32 %227, 1
  store i32 %228, ptr %24, align 4, !tbaa !40
  %229 = sext i32 %227 to i64
  %230 = getelementptr inbounds i32, ptr %226, i64 %229
  store i32 %225, ptr %230, align 4, !tbaa !40
  br label %231

231:                                              ; preds = %224, %217
  br label %232

232:                                              ; preds = %231
  %233 = load i32, ptr %23, align 4, !tbaa !40
  %234 = add nsw i32 %233, 1
  store i32 %234, ptr %23, align 4, !tbaa !40
  br label %207, !llvm.loop !123

235:                                              ; preds = %207
  %236 = load i32, ptr %24, align 4, !tbaa !40
  store i32 %236, ptr %10, align 4
  store i32 1, ptr %25, align 4
  br label %237

237:                                              ; preds = %235, %43
  call void @llvm.lifetime.end.p0(i64 4, ptr %24) #11
  call void @llvm.lifetime.end.p0(i64 4, ptr %23) #11
  call void @llvm.lifetime.end.p0(i64 8, ptr %22) #11
  call void @llvm.lifetime.end.p0(i64 8, ptr %21) #11
  call void @llvm.lifetime.end.p0(i64 8, ptr %20) #11
  %238 = load i32, ptr %10, align 4
  ret i32 %238
}