; Function Attrs: nounwind uwtable
define internal i32 @detect_clips(ptr noundef readonly captures(none) %0, ptr noundef %1, double %2, ptr readnone captures(none) %3, ptr readnone captures(none) %4, ptr noundef captures(none) %5, ptr noundef writeonly captures(none) %6, ptr noundef readonly captures(none) %7, ptr noundef writeonly captures(none) %8) #2 {
  %10 = getelementptr inbounds nuw i8, ptr %0, i64 24
  %11 = load double, ptr %10, align 8, !tbaa !114
  %12 = getelementptr inbounds nuw i8, ptr %1, i64 112
  %13 = getelementptr inbounds nuw i8, ptr %1, i64 120
  %14 = getelementptr inbounds nuw i8, ptr %0, i64 52
  %15 = load i32, ptr %14, align 4, !tbaa !115
  %16 = sext i32 %15 to i64
  %17 = shl nsw i64 %16, 2
  tail call void @av_fast_malloc(ptr noundef nonnull %12, ptr noundef nonnull %13, i64 noundef %17) #13
  %18 = load ptr, ptr %12, align 8, !tbaa !116
  %.not = icmp eq ptr %18, null
  br i1 %.not, label %.loopexit, label %19

19:                                               ; preds = %9
  %20 = load i32, ptr %14, align 4, !tbaa !115
  %21 = sext i32 %20 to i64
  %22 = shl nsw i64 %21, 2
  tail call void @llvm.memset.p0.i64(ptr nonnull align 4 %18, i8 0, i64 %22, i1 false)
  %23 = getelementptr inbounds nuw i8, ptr %0, i64 68
  %24 = load i32, ptr %23, align 4, !tbaa !49
  %25 = icmp sgt i32 %24, 0
  br i1 %25, label %.lr.ph, label %._crit_edge

.lr.ph:                                           ; preds = %19, %.lr.ph
  %indvars.iv = phi i64 [ %indvars.iv.next, %.lr.ph ], [ 0, %19 ]
  %26 = getelementptr inbounds nuw double, ptr %7, i64 %indvars.iv
  %27 = load double, ptr %26, align 8, !tbaa !65
  %28 = tail call nsz double @llvm.fabs.f64(double %27)
  %29 = tail call nsz double @llvm.minnum.f64(double %28, double 1.000000e+00)
  %30 = load i32, ptr %14, align 4, !tbaa !115
  %31 = add nsw i32 %30, -1
  %32 = sitofp i32 %31 to double
  %33 = fmul nsz double %29, %32
  %34 = fptoui double %33 to i32
  %35 = zext i32 %34 to i64
  %36 = getelementptr inbounds nuw i32, ptr %18, i64 %35
  %37 = load i32, ptr %36, align 4, !tbaa !117
  %38 = add i32 %37, 1
  store i32 %38, ptr %36, align 4, !tbaa !117
  %39 = getelementptr inbounds nuw double, ptr %8, i64 %indvars.iv
  store double %27, ptr %39, align 8, !tbaa !65
  %40 = getelementptr inbounds nuw i8, ptr %5, i64 %indvars.iv
  store i8 0, ptr %40, align 1, !tbaa !118
  %indvars.iv.next = add nuw nsw i64 %indvars.iv, 1
  %41 = load i32, ptr %23, align 4, !tbaa !49
  %42 = sext i32 %41 to i64
  %43 = icmp slt i64 %indvars.iv.next, %42
  br i1 %43, label %.lr.ph, label %._crit_edge.loopexit, !llvm.loop !119

._crit_edge.loopexit:                             ; preds = %.lr.ph
  %44 = icmp slt i32 %41, 1
  br label %._crit_edge

._crit_edge:                                      ; preds = %._crit_edge.loopexit, %19
  %.not101 = phi i1 [ %44, %._crit_edge.loopexit ], [ true, %19 ]
  %45 = load i32, ptr %14, align 4, !tbaa !115
  %46 = zext i32 %45 to i64
  br label %47

47:                                               ; preds = %50, %._crit_edge
  %indvars.iv85 = phi i64 [ %51, %50 ], [ %46, %._crit_edge ]
  %48 = trunc nuw i64 %indvars.iv85 to i32
  %49 = icmp sgt i32 %48, 2
  br i1 %49, label %50, label %.thread

50:                                               ; preds = %47
  %51 = add nsw i64 %indvars.iv85, -1
  %52 = getelementptr inbounds nuw i32, ptr %18, i64 %51
  %53 = load i32, ptr %52, align 4, !tbaa !117
  %.not69 = icmp eq i32 %53, 0
  br i1 %.not69, label %47, label %54, !llvm.loop !120

54:                                               ; preds = %50
  %55 = uitofp i32 %53 to double
  %56 = getelementptr i32, ptr %18, i64 %indvars.iv85
  %57 = getelementptr i8, ptr %56, i64 -8
  %58 = load i32, ptr %57, align 4, !tbaa !117
  %59 = tail call i32 @llvm.umax.i32(i32 %58, i32 1)
  %60 = uitofp i32 %59 to double
  %61 = fdiv nsz double %55, %60
  %62 = fcmp nsz ogt double %61, %11
  br i1 %62, label %63, label %.thread

63:                                               ; preds = %54
  %64 = trunc i64 %51 to i32
  %65 = uitofp nneg i32 %64 to double
  %66 = sitofp i32 %45 to double
  %67 = fdiv nsz double %65, %66
  %68 = fcmp nsz ule double %67, 0.000000e+00
  %brmerge = or i1 %68, %.not101
  br i1 %brmerge, label %.thread, label %.lr.ph78

.lr.ph78:                                         ; preds = %63, %.lr.ph78
  %indvars.iv89 = phi i64 [ %indvars.iv.next90, %.lr.ph78 ], [ 0, %63 ]
  %69 = getelementptr inbounds nuw double, ptr %7, i64 %indvars.iv89
  %70 = load double, ptr %69, align 8, !tbaa !65
  %71 = tail call nsz double @llvm.fabs.f64(double %70)
  %72 = fcmp nsz oge double %71, %67
  %73 = zext i1 %72 to i8
  %74 = getelementptr inbounds nuw i8, ptr %5, i64 %indvars.iv89
  store i8 %73, ptr %74, align 1, !tbaa !118
  %indvars.iv.next90 = add nuw nsw i64 %indvars.iv89, 1
  %75 = load i32, ptr %23, align 4, !tbaa !49
  %76 = sext i32 %75 to i64
  %77 = icmp slt i64 %indvars.iv.next90, %76
  br i1 %77, label %.lr.ph78, label %.thread, !llvm.loop !121

.thread:                                          ; preds = %47, %.lr.ph78, %63, %54
  %78 = getelementptr inbounds nuw i8, ptr %0, i64 60
  %79 = load i32, ptr %78, align 4, !tbaa !88
  %80 = sext i32 %79 to i64
  tail call void @llvm.memset.p0.i64(ptr align 1 %5, i8 0, i64 %80, i1 false)
  %81 = load i32, ptr %23, align 4, !tbaa !49
  %82 = load i32, ptr %78, align 4, !tbaa !88
  %83 = sub nsw i32 %81, %82
  %84 = sext i32 %83 to i64
  %85 = getelementptr inbounds i8, ptr %5, i64 %84
  %86 = sext i32 %82 to i64
  tail call void @llvm.memset.p0.i64(ptr align 1 %85, i8 0, i64 %86, i1 false)
  %87 = load i32, ptr %78, align 4, !tbaa !88
  %88 = load i32, ptr %23, align 4, !tbaa !49
  %89 = sub nsw i32 %88, %87
  %90 = icmp slt i32 %87, %89
  br i1 %90, label %.lr.ph81.preheader, label %.loopexit

.lr.ph81.preheader:                               ; preds = %.thread
  %91 = sext i32 %87 to i64
  br label %.lr.ph81

.lr.ph81:                                         ; preds = %.lr.ph81.preheader, %101
  %92 = phi i32 [ %87, %.lr.ph81.preheader ], [ %102, %101 ]
  %93 = phi i32 [ %88, %.lr.ph81.preheader ], [ %103, %101 ]
  %indvars.iv92 = phi i64 [ %91, %.lr.ph81.preheader ], [ %indvars.iv.next93, %101 ]
  %.06280 = phi i32 [ 0, %.lr.ph81.preheader ], [ %.1, %101 ]
  %94 = getelementptr inbounds i8, ptr %5, i64 %indvars.iv92
  %95 = load i8, ptr %94, align 1, !tbaa !118
  %.not70 = icmp eq i8 %95, 0
  br i1 %.not70, label %101, label %96

96:                                               ; preds = %.lr.ph81
  %97 = add nsw i32 %.06280, 1
  %98 = sext i32 %.06280 to i64
  %99 = getelementptr inbounds i32, ptr %6, i64 %98
  %100 = trunc nsw i64 %indvars.iv92 to i32
  store i32 %100, ptr %99, align 4, !tbaa !117
  %.pre = load i32, ptr %23, align 4, !tbaa !49
  %.pre95 = load i32, ptr %78, align 4, !tbaa !88
  br label %101

101:                                              ; preds = %.lr.ph81, %96
  %102 = phi i32 [ %.pre95, %96 ], [ %92, %.lr.ph81 ]
  %103 = phi i32 [ %.pre, %96 ], [ %93, %.lr.ph81 ]
  %.1 = phi i32 [ %97, %96 ], [ %.06280, %.lr.ph81 ]
  %indvars.iv.next93 = add nsw i64 %indvars.iv92, 1
  %104 = sub nsw i32 %103, %102
  %105 = sext i32 %104 to i64
  %106 = icmp slt i64 %indvars.iv.next93, %105
  br i1 %106, label %.lr.ph81, label %.loopexit, !llvm.loop !122

.loopexit:                                        ; preds = %101, %.thread, %9
  %.0 = phi i32 [ -12, %9 ], [ 0, %.thread ], [ %.1, %101 ]
  ret i32 %.0
}